---
triple:          'arm64-apple-darwin'
binary-path:     merge
relocations:
  - { offset: 0x2F86, size: 0x8, addend: 0x0, symName: __ZNSt3__124__put_character_sequenceB8ne180100IcNS_11char_traitsIcEEEERNS_13basic_ostreamIT_T0_EES7_PKS4_m, symObjAddr: 0x2208, symBinAddr: 0x100003960, symSize: 0x1F4 }
  - { offset: 0x6C3C, size: 0x8, addend: 0x0, symName: __ZNSt3__1lsB8ne180100IcNS_11char_traitsIcEENS_9allocatorIcEEEERNS_13basic_ostreamIT_T0_EES9_RKNS_12basic_stringIS6_S7_T1_EE, symObjAddr: 0xE68, symBinAddr: 0x1000025C0, symSize: 0x4C }
  - { offset: 0x6C94, size: 0x8, addend: 0x0, symName: __ZNSt3__1lsB8ne180100INS_11char_traitsIcEEEERNS_13basic_ostreamIcT_EES6_PKc, symObjAddr: 0xEB4, symBinAddr: 0x10000260C, symSize: 0x48 }
  - { offset: 0x6CDA, size: 0x8, addend: 0x0, symName: __ZNSt3__14endlB8ne180100IcNS_11char_traitsIcEEEERNS_13basic_ostreamIT_T0_EES7_, symObjAddr: 0xF28, symBinAddr: 0x100002680, symSize: 0x58 }
  - { offset: 0x6D1A, size: 0x8, addend: 0x0, symName: __ZNSt3__17getlineB8ne180100IcNS_11char_traitsIcEENS_9allocatorIcEEEERNS_13basic_istreamIT_T0_EES9_RNS_12basic_stringIS6_S7_T1_EE, symObjAddr: 0xFAC, symBinAddr: 0x100002704, symSize: 0x5C }
  - { offset: 0x719B, size: 0x8, addend: 0x0, symName: __ZNSt3__17getlineB8ne180100IcNS_11char_traitsIcEENS_9allocatorIcEEEERNS_13basic_istreamIT_T0_EES9_RNS_12basic_stringIS6_S7_T1_EES6_, symObjAddr: 0x1160, symBinAddr: 0x1000028B8, symSize: 0x238 }
  - { offset: 0x726F, size: 0x8, addend: 0x0, symName: __ZNSt3__116__pad_and_outputB8ne180100IcNS_11char_traitsIcEEEENS_19ostreambuf_iteratorIT_T0_EES6_PKS4_S8_S8_RNS_8ios_baseES4_, symObjAddr: 0x2460, symBinAddr: 0x100003BB8, symSize: 0x248 }
  - { offset: 0x733E, size: 0x8, addend: 0x0, symName: __ZNSt3__112__to_addressB8ne180100IKcEEPT_S3_, symObjAddr: 0x2964, symBinAddr: 0x1000040BC, symSize: 0x14 }
  - { offset: 0x7373, size: 0x8, addend: 0x0, symName: __ZNSt3__130__libcpp_is_constant_evaluatedB8ne180100Ev, symObjAddr: 0x2AB0, symBinAddr: 0x100004208, symSize: 0xC }
  - { offset: 0x73C3, size: 0x8, addend: 0x0, symName: __ZNSt3__19use_facetB8ne180100INS_5ctypeIcEEEERKT_RKNS_6localeE, symObjAddr: 0x2C68, symBinAddr: 0x1000043C0, symSize: 0x2C }
  - { offset: 0x7890, size: 0x8, addend: 0x0, symName: __ZNSt3__118__constexpr_strlenB8ne180100EPKc, symObjAddr: 0x2D00, symBinAddr: 0x100004458, symSize: 0x24 }
  - { offset: 0x78BC, size: 0x8, addend: 0x0, symName: __ZNSt3__122__make_exception_guardB8ne180100INS_6vectorI11BillionaireNS_9allocatorIS2_EEE16__destroy_vectorEEENS_28__exception_guard_exceptionsIT_EES8_, symObjAddr: 0x2EEC, symBinAddr: 0x100004644, symSize: 0x40 }
  - { offset: 0x78F1, size: 0x8, addend: 0x0, symName: __ZNSt3__119__allocate_at_leastB8ne180100INS_9allocatorI11BillionaireEEEENS_19__allocation_resultINS_16allocator_traitsIT_E7pointerEEERS6_m, symObjAddr: 0x32F4, symBinAddr: 0x100004A4C, symSize: 0x40 }
  - { offset: 0x7934, size: 0x8, addend: 0x0, symName: __ZNSt3__13minB8ne180100ImEERKT_S3_S3_, symObjAddr: 0x3398, symBinAddr: 0x100004AF0, symSize: 0x2C }
  - { offset: 0x7B78, size: 0x8, addend: 0x0, symName: __ZNSt3__13minB8ne180100ImNS_6__lessIvvEEEERKT_S5_S5_T0_, symObjAddr: 0x3424, symBinAddr: 0x100004B7C, symSize: 0x54 }
  - { offset: 0x7C17, size: 0x8, addend: 0x0, symName: __ZNSt3__120__throw_length_errorB8ne180100EPKc, symObjAddr: 0x3500, symBinAddr: 0x100004C58, symSize: 0x64 }
  - { offset: 0x7C3F, size: 0x8, addend: 0x0, symName: __ZNSt3__117__libcpp_allocateB8ne180100Emm, symObjAddr: 0x3694, symBinAddr: 0x100004DEC, symSize: 0x28 }
  - { offset: 0x7C7C, size: 0x8, addend: 0x0, symName: __ZNSt3__121__libcpp_operator_newB8ne180100IJmEEEPvDpT_, symObjAddr: 0x36BC, symBinAddr: 0x100004E14, symSize: 0x24 }
  - { offset: 0x7CB5, size: 0x8, addend: 0x0, symName: __ZNSt3__112__to_addressB8ne180100I11BillionaireEEPT_S3_, symObjAddr: 0x37B8, symBinAddr: 0x100004F10, symSize: 0x14 }
  - { offset: 0x7CEA, size: 0x8, addend: 0x0, symName: __ZNSt3__119__libcpp_deallocateB8ne180100EPvmm, symObjAddr: 0x3D64, symBinAddr: 0x1000054BC, symSize: 0x30 }
  - { offset: 0x7D32, size: 0x8, addend: 0x0, symName: __ZNSt3__127__do_deallocate_handle_sizeB8ne180100IJEEEvPvmDpT_, symObjAddr: 0x3D94, symBinAddr: 0x1000054EC, symSize: 0x28 }
  - { offset: 0x7D70, size: 0x8, addend: 0x0, symName: __ZNSt3__124__libcpp_operator_deleteB8ne180100IJPvEEEvDpT_, symObjAddr: 0x3DBC, symBinAddr: 0x100005514, symSize: 0x24 }
  - { offset: 0x7FDA, size: 0x8, addend: 0x0, symName: __ZNSt3__13maxB8ne180100ImEERKT_S3_S3_, symObjAddr: 0x4E4C, symBinAddr: 0x1000065A4, symSize: 0x2C }
  - { offset: 0x801D, size: 0x8, addend: 0x0, symName: __ZNSt3__13maxB8ne180100ImNS_6__lessIvvEEEERKT_S5_S5_T0_, symObjAddr: 0x4E78, symBinAddr: 0x1000065D0, symSize: 0x54 }
  - { offset: 0x8077, size: 0x8, addend: 0x0, symName: __ZNSt3__142__uninitialized_allocator_move_if_noexceptB8ne180100INS_9allocatorI11BillionaireEENS_16reverse_iteratorIPS2_EES6_S6_EET2_RT_T0_T1_S7_, symObjAddr: 0x50F8, symBinAddr: 0x100006850, symSize: 0x134 }
  - { offset: 0x8117, size: 0x8, addend: 0x0, symName: __ZNSt3__14swapB8ne180100IP11BillionaireEEvRT_S4_, symObjAddr: 0x5278, symBinAddr: 0x1000069D0, symSize: 0x3C }
  - { offset: 0x8168, size: 0x8, addend: 0x0, symName: __ZNSt3__122__make_exception_guardB8ne180100INS_29_AllocatorDestroyRangeReverseINS_9allocatorI11BillionaireEENS_16reverse_iteratorIPS3_EEEEEENS_28__exception_guard_exceptionsIT_EESA_, symObjAddr: 0x52B4, symBinAddr: 0x100006A0C, symSize: 0x4C }
  - { offset: 0x819E, size: 0x8, addend: 0x0, symName: __ZNSt3__1neB8ne180100IP11BillionaireS2_EEbRKNS_16reverse_iteratorIT_EERKNS3_IT0_EE, symObjAddr: 0x5344, symBinAddr: 0x100006A9C, symSize: 0x48 }
  - { offset: 0x81EA, size: 0x8, addend: 0x0, symName: __ZNSt3__112__to_addressB8ne180100INS_16reverse_iteratorIP11BillionaireEEvEEu7__decayIDTclsr19__to_address_helperIT_EE6__callclsr3stdE7declvalIRKS5_EEEEES7_, symObjAddr: 0x538C, symBinAddr: 0x100006AE4, symSize: 0x24 }
  - { offset: 0x8249, size: 0x8, addend: 0x0, symName: __ZNSt3__119__allocator_destroyB8ne180100INS_9allocatorI11BillionaireEENS_16reverse_iteratorINS4_IPS2_EEEES7_EEvRT_T0_T1_, symObjAddr: 0x5648, symBinAddr: 0x100006DA0, symSize: 0x70 }
  - { offset: 0x82AE, size: 0x8, addend: 0x0, symName: __ZNSt3__1neB8ne180100INS_16reverse_iteratorIP11BillionaireEES4_EEbRKNS1_IT_EERKNS1_IT0_EE, symObjAddr: 0x56F4, symBinAddr: 0x100006E4C, symSize: 0x60 }
  - { offset: 0x82FA, size: 0x8, addend: 0x0, symName: __ZNSt3__112__to_addressB8ne180100INS_16reverse_iteratorINS1_IP11BillionaireEEEEvEEu7__decayIDTclsr19__to_address_helperIT_EE6__callclsr3stdE7declvalIRKS6_EEEEES8_, symObjAddr: 0x5754, symBinAddr: 0x100006EAC, symSize: 0x24 }
  - { offset: 0x9080, size: 0x8, addend: 0x0, symName: __ZSt28__throw_bad_array_new_lengthB8ne180100v, symObjAddr: 0x3660, symBinAddr: 0x100004DB8, symSize: 0x34 }
  - { offset: 0x97A9, size: 0x8, addend: 0x0, symName: __ZNSt3__16vectorI11BillionaireNS_9allocatorIS1_EEE26__swap_out_circular_bufferERNS_14__split_bufferIS1_RS3_EE, symObjAddr: 0x4D10, symBinAddr: 0x100006468, symSize: 0x110 }
  - { offset: 0x9853, size: 0x8, addend: 0x0, symName: __Z5mergeRNSt3__16vectorI11BillionaireNS_9allocatorIS1_EEEEiii, symObjAddr: 0x0, symBinAddr: 0x100001758, symSize: 0x374 }
  - { offset: 0x993D, size: 0x8, addend: 0x0, symName: __ZNSt3__16vectorI11BillionaireNS_9allocatorIS1_EEEC1Em, symObjAddr: 0x374, symBinAddr: 0x100001ACC, symSize: 0x34 }
  - { offset: 0x9977, size: 0x8, addend: 0x0, symName: __ZNSt3__16vectorI11BillionaireNS_9allocatorIS1_EEEixB8ne180100Em, symObjAddr: 0x3A8, symBinAddr: 0x100001B00, symSize: 0x24 }
  - { offset: 0x99AD, size: 0x8, addend: 0x0, symName: __ZN11BillionaireaSERKS_, symObjAddr: 0x3CC, symBinAddr: 0x100001B24, symSize: 0x90 }
  - { offset: 0x99DD, size: 0x8, addend: 0x0, symName: __ZN11BillionaireleERKS_, symObjAddr: 0x45C, symBinAddr: 0x100001BB4, symSize: 0x30 }
  - { offset: 0x9A10, size: 0x8, addend: 0x0, symName: __ZNSt3__16vectorI11BillionaireNS_9allocatorIS1_EEED1B8ne180100Ev, symObjAddr: 0x48C, symBinAddr: 0x100001BE4, symSize: 0x2C }
  - { offset: 0x9A38, size: 0x8, addend: 0x0, symName: __Z9mergeSortRNSt3__16vectorI11BillionaireNS_9allocatorIS1_EEEEii, symObjAddr: 0x4C8, symBinAddr: 0x100001C20, symSize: 0x9C }
  - { offset: 0x9A8A, size: 0x8, addend: 0x0, symName: __Z12readFromFileNSt3__112basic_stringIcNS_11char_traitsIcEENS_9allocatorIcEEEE, symObjAddr: 0x564, symBinAddr: 0x100001CBC, symSize: 0x738 }
  - { offset: 0x9B83, size: 0x8, addend: 0x0, symName: __ZNSt3__16vectorI11BillionaireNS_9allocatorIS1_EEEC1B8ne180100Ev, symObjAddr: 0xC9C, symBinAddr: 0x1000023F4, symSize: 0x2C }
  - { offset: 0x9EEA, size: 0x8, addend: 0x0, symName: __ZNSt3__114basic_ifstreamIcNS_11char_traitsIcEEEC1ERKNS_12basic_stringIcS2_NS_9allocatorIcEEEEj, symObjAddr: 0xCC8, symBinAddr: 0x100002420, symSize: 0x174 }
  - { offset: 0x9F32, size: 0x8, addend: 0x0, symName: __ZNKSt3__114basic_ifstreamIcNS_11char_traitsIcEEE7is_openEv, symObjAddr: 0xE3C, symBinAddr: 0x100002594, symSize: 0x2C }
  - { offset: 0x9F59, size: 0x8, addend: 0x0, symName: __ZNSt3__113basic_ostreamIcNS_11char_traitsIcEEElsB8ne180100EPFRS3_S4_E, symObjAddr: 0xEFC, symBinAddr: 0x100002654, symSize: 0x2C }
  - { offset: 0x9F8C, size: 0x8, addend: 0x0, symName: __ZNSt3__112basic_stringIcNS_11char_traitsIcEENS_9allocatorIcEEEC1B8ne180100Ev, symObjAddr: 0xF80, symBinAddr: 0x1000026D8, symSize: 0x2C }
  - { offset: 0x9FB5, size: 0x8, addend: 0x0, symName: __ZNKSt3__19basic_iosIcNS_11char_traitsIcEEEcvPvB8ne180100Ev, symObjAddr: 0x1008, symBinAddr: 0x100002760, symSize: 0x4C }
  - { offset: 0xA039, size: 0x8, addend: 0x0, symName: __ZNSt3__118basic_stringstreamIcNS_11char_traitsIcEENS_9allocatorIcEEEC1B8ne180100ERKNS_12basic_stringIcS2_S4_EEj, symObjAddr: 0x1054, symBinAddr: 0x1000027AC, symSize: 0x10C }
  - { offset: 0xA080, size: 0x8, addend: 0x0, symName: __ZN11BillionaireC1ENSt3__112basic_stringIcNS0_11char_traitsIcEENS0_9allocatorIcEEEEiS6_S6_S6_S6_, symObjAddr: 0x1398, symBinAddr: 0x100002AF0, symSize: 0x5C }
  - { offset: 0xA101, size: 0x8, addend: 0x0, symName: __ZNSt3__16vectorI11BillionaireNS_9allocatorIS1_EEE9push_backB8ne180100ERKS1_, symObjAddr: 0x13F4, symBinAddr: 0x100002B4C, symSize: 0x90 }
  - { offset: 0xA146, size: 0x8, addend: 0x0, symName: __ZN11BillionaireD1Ev, symObjAddr: 0x1484, symBinAddr: 0x100002BDC, symSize: 0x2C }
  - { offset: 0xA176, size: 0x8, addend: 0x0, symName: __ZNSt3__118basic_stringstreamIcNS_11char_traitsIcEENS_9allocatorIcEEED1Ev, symObjAddr: 0x14B0, symBinAddr: 0x100002C08, symSize: 0x70 }
  - { offset: 0xA1A7, size: 0x8, addend: 0x0, symName: __ZNSt3__114basic_ifstreamIcNS_11char_traitsIcEEED1Ev, symObjAddr: 0x1520, symBinAddr: 0x100002C78, symSize: 0x70 }
  - { offset: 0xA1D3, size: 0x8, addend: 0x0, symName: _main, symObjAddr: 0x1590, symBinAddr: 0x100002CE8, symSize: 0x1AC }
  - { offset: 0xA224, size: 0x8, addend: 0x0, symName: __ZNSt3__112basic_stringIcNS_11char_traitsIcEENS_9allocatorIcEEEC1B8ne180100ILi0EEEPKc, symObjAddr: 0x173C, symBinAddr: 0x100002E94, symSize: 0x34 }
  - { offset: 0xA262, size: 0x8, addend: 0x0, symName: __ZNKSt3__16vectorI11BillionaireNS_9allocatorIS1_EEE4sizeB8ne180100Ev, symObjAddr: 0x1770, symBinAddr: 0x100002EC8, symSize: 0x28 }
  - { offset: 0xA287, size: 0x8, addend: 0x0, symName: __ZN11Billionaire7displayEv, symObjAddr: 0x1798, symBinAddr: 0x100002EF0, symSize: 0x2CC }
  - { offset: 0xA2AC, size: 0x8, addend: 0x0, symName: __ZN11BillionaireC2ENSt3__112basic_stringIcNS0_11char_traitsIcEENS0_9allocatorIcEEEEiS6_S6_S6_S6_, symObjAddr: 0x1A64, symBinAddr: 0x1000031BC, symSize: 0x1BC }
  - { offset: 0xA32E, size: 0x8, addend: 0x0, symName: __ZN11BillionaireD2Ev, symObjAddr: 0x1C20, symBinAddr: 0x100003378, symSize: 0x100 }
  - { offset: 0xA359, size: 0x8, addend: 0x0, symName: __ZNSt3__118basic_stringstreamIcNS_11char_traitsIcEENS_9allocatorIcEEED2Ev, symObjAddr: 0x1D20, symBinAddr: 0x100003478, symSize: 0xA4 }
  - { offset: 0xA391, size: 0x8, addend: 0x0, symName: __ZThn16_NSt3__118basic_stringstreamIcNS_11char_traitsIcEENS_9allocatorIcEEED1Ev, symObjAddr: 0x1DC4, symBinAddr: 0x10000351C, symSize: 0x1C }
  - { offset: 0xA3A8, size: 0x8, addend: 0x0, symName: __ZTv0_n24_NSt3__118basic_stringstreamIcNS_11char_traitsIcEENS_9allocatorIcEEED1Ev, symObjAddr: 0x1DE0, symBinAddr: 0x100003538, symSize: 0x28 }
  - { offset: 0xA3C4, size: 0x8, addend: 0x0, symName: __ZNSt3__115basic_stringbufIcNS_11char_traitsIcEENS_9allocatorIcEEED1Ev, symObjAddr: 0x1E08, symBinAddr: 0x100003560, symSize: 0x2C }
  - { offset: 0xA3F0, size: 0x8, addend: 0x0, symName: __ZNSt3__115basic_stringbufIcNS_11char_traitsIcEENS_9allocatorIcEEED2Ev, symObjAddr: 0x1E34, symBinAddr: 0x10000358C, symSize: 0x78 }
  - { offset: 0xA41C, size: 0x8, addend: 0x0, symName: __ZNSt3__114basic_ifstreamIcNS_11char_traitsIcEEED2Ev, symObjAddr: 0x1EAC, symBinAddr: 0x100003604, symSize: 0x9C }
  - { offset: 0xA454, size: 0x8, addend: 0x0, symName: __ZTv0_n24_NSt3__114basic_ifstreamIcNS_11char_traitsIcEEED1Ev, symObjAddr: 0x1F48, symBinAddr: 0x1000036A0, symSize: 0x28 }
  - { offset: 0xA46B, size: 0x8, addend: 0x0, symName: __ZNK11Billionaire7getNameEv, symObjAddr: 0x1F70, symBinAddr: 0x1000036C8, symSize: 0x38 }
  - { offset: 0xA490, size: 0x8, addend: 0x0, symName: __ZNK11Billionaire7getYearEv, symObjAddr: 0x1FA8, symBinAddr: 0x100003700, symSize: 0x18 }
  - { offset: 0xA4B5, size: 0x8, addend: 0x0, symName: __ZNK11Billionaire11getNetworthEv, symObjAddr: 0x1FC0, symBinAddr: 0x100003718, symSize: 0x3C }
  - { offset: 0xA4DA, size: 0x8, addend: 0x0, symName: __ZNK11Billionaire6getAgeEv, symObjAddr: 0x1FFC, symBinAddr: 0x100003754, symSize: 0x3C }
  - { offset: 0xA4FF, size: 0x8, addend: 0x0, symName: __ZNK11Billionaire10getCompanyEv, symObjAddr: 0x2038, symBinAddr: 0x100003790, symSize: 0x3C }
  - { offset: 0xA524, size: 0x8, addend: 0x0, symName: __ZNK11Billionaire10getCountryEv, symObjAddr: 0x2074, symBinAddr: 0x1000037CC, symSize: 0x3C }
  - { offset: 0xA549, size: 0x8, addend: 0x0, symName: __ZNSt3__112basic_stringIcNS_11char_traitsIcEENS_9allocatorIcEEEC2B8ne180100Ev, symObjAddr: 0x20B0, symBinAddr: 0x100003808, symSize: 0x40 }
  - { offset: 0xA57C, size: 0x8, addend: 0x0, symName: __ZNSt3__117__compressed_pairINS_12basic_stringIcNS_11char_traitsIcEENS_9allocatorIcEEE5__repES5_EC1B8ne180100INS_16__value_init_tagENS_18__default_init_tagEEEOT_OT0_, symObjAddr: 0x20F0, symBinAddr: 0x100003848, symSize: 0x3C }
  - { offset: 0xA5D3, size: 0x8, addend: 0x0, symName: __ZNKSt3__112basic_stringIcNS_11char_traitsIcEENS_9allocatorIcEEE14__annotate_newB8ne180100Em, symObjAddr: 0x212C, symBinAddr: 0x100003884, symSize: 0x14 }
  - { offset: 0xA607, size: 0x8, addend: 0x0, symName: __ZNSt3__117__compressed_pairINS_12basic_stringIcNS_11char_traitsIcEENS_9allocatorIcEEE5__repES5_EC2B8ne180100INS_16__value_init_tagENS_18__default_init_tagEEEOT_OT0_, symObjAddr: 0x2140, symBinAddr: 0x100003898, symSize: 0x3C }
  - { offset: 0xA65E, size: 0x8, addend: 0x0, symName: __ZNSt3__122__compressed_pair_elemINS_12basic_stringIcNS_11char_traitsIcEENS_9allocatorIcEEE5__repELi0ELb0EEC2B8ne180100ENS_16__value_init_tagE, symObjAddr: 0x217C, symBinAddr: 0x1000038D4, symSize: 0x20 }
  - { offset: 0xA692, size: 0x8, addend: 0x0, symName: __ZNSt3__122__compressed_pair_elemINS_9allocatorIcEELi1ELb1EEC2B8ne180100ENS_18__default_init_tagE, symObjAddr: 0x219C, symBinAddr: 0x1000038F4, symSize: 0x2C }
  - { offset: 0xA6C6, size: 0x8, addend: 0x0, symName: __ZNSt3__19allocatorIcEC2B8ne180100Ev, symObjAddr: 0x21C8, symBinAddr: 0x100003920, symSize: 0x2C }
  - { offset: 0xA6EF, size: 0x8, addend: 0x0, symName: __ZNSt3__116__non_trivial_ifILb1ENS_9allocatorIcEEEC2B8ne180100Ev, symObjAddr: 0x21F4, symBinAddr: 0x10000394C, symSize: 0x14 }
  - { offset: 0xA718, size: 0x8, addend: 0x0, symName: __ZNSt3__111char_traitsIcE6lengthB8ne180100EPKc, symObjAddr: 0x23FC, symBinAddr: 0x100003B54, symSize: 0x48 }
  - { offset: 0xA759, size: 0x8, addend: 0x0, symName: __ZNKSt3__113basic_ostreamIcNS_11char_traitsIcEEE6sentrycvbB8ne180100Ev, symObjAddr: 0x2444, symBinAddr: 0x100003B9C, symSize: 0x1C }
  - { offset: 0xA77E, size: 0x8, addend: 0x0, symName: __ZNSt3__119ostreambuf_iteratorIcNS_11char_traitsIcEEEC1B8ne180100ERNS_13basic_ostreamIcS2_EE, symObjAddr: 0x26A8, symBinAddr: 0x100003E00, symSize: 0x34 }
  - { offset: 0xA7B5, size: 0x8, addend: 0x0, symName: __ZNKSt3__18ios_base5flagsB8ne180100Ev, symObjAddr: 0x26DC, symBinAddr: 0x100003E34, symSize: 0x18 }
  - { offset: 0xA7DB, size: 0x8, addend: 0x0, symName: __ZNKSt3__19basic_iosIcNS_11char_traitsIcEEE4fillB8ne180100Ev, symObjAddr: 0x26F4, symBinAddr: 0x100003E4C, symSize: 0x64 }
  - { offset: 0xA802, size: 0x8, addend: 0x0, symName: __ZNKSt3__119ostreambuf_iteratorIcNS_11char_traitsIcEEE6failedB8ne180100Ev, symObjAddr: 0x2758, symBinAddr: 0x100003EB0, symSize: 0x24 }
  - { offset: 0xA827, size: 0x8, addend: 0x0, symName: __ZNSt3__19basic_iosIcNS_11char_traitsIcEEE8setstateB8ne180100Ej, symObjAddr: 0x277C, symBinAddr: 0x100003ED4, symSize: 0x2C }
  - { offset: 0xA85B, size: 0x8, addend: 0x0, symName: __ZNKSt3__18ios_base5widthB8ne180100Ev, symObjAddr: 0x27A8, symBinAddr: 0x100003F00, symSize: 0x18 }
  - { offset: 0xA882, size: 0x8, addend: 0x0, symName: __ZNSt3__115basic_streambufIcNS_11char_traitsIcEEE5sputnB8ne180100EPKcl, symObjAddr: 0x27C0, symBinAddr: 0x100003F18, symSize: 0x3C }
  - { offset: 0xA8C3, size: 0x8, addend: 0x0, symName: __ZNSt3__112basic_stringIcNS_11char_traitsIcEENS_9allocatorIcEEEC1B8ne180100Emc, symObjAddr: 0x27FC, symBinAddr: 0x100003F54, symSize: 0x3C }
  - { offset: 0xA90A, size: 0x8, addend: 0x0, symName: __ZNKSt3__112basic_stringIcNS_11char_traitsIcEENS_9allocatorIcEEE4dataB8ne180100Ev, symObjAddr: 0x2838, symBinAddr: 0x100003F90, symSize: 0x28 }
  - { offset: 0xA92F, size: 0x8, addend: 0x0, symName: __ZNSt3__18ios_base5widthB8ne180100El, symObjAddr: 0x2860, symBinAddr: 0x100003FB8, symSize: 0x2C }
  - { offset: 0xA974, size: 0x8, addend: 0x0, symName: __ZNSt3__112basic_stringIcNS_11char_traitsIcEENS_9allocatorIcEEEC2B8ne180100Emc, symObjAddr: 0x288C, symBinAddr: 0x100003FE4, symSize: 0x4C }
  - { offset: 0xA9BB, size: 0x8, addend: 0x0, symName: __ZNSt3__117__compressed_pairINS_12basic_stringIcNS_11char_traitsIcEENS_9allocatorIcEEE5__repES5_EC1B8ne180100INS_18__default_init_tagESA_EEOT_OT0_, symObjAddr: 0x28D8, symBinAddr: 0x100004030, symSize: 0x3C }
  - { offset: 0xAA12, size: 0x8, addend: 0x0, symName: __ZNSt3__117__compressed_pairINS_12basic_stringIcNS_11char_traitsIcEENS_9allocatorIcEEE5__repES5_EC2B8ne180100INS_18__default_init_tagESA_EEOT_OT0_, symObjAddr: 0x2914, symBinAddr: 0x10000406C, symSize: 0x3C }
  - { offset: 0xAA69, size: 0x8, addend: 0x0, symName: __ZNSt3__122__compressed_pair_elemINS_12basic_stringIcNS_11char_traitsIcEENS_9allocatorIcEEE5__repELi0ELb0EEC2B8ne180100ENS_18__default_init_tagE, symObjAddr: 0x2950, symBinAddr: 0x1000040A8, symSize: 0x14 }
  - { offset: 0xAA9D, size: 0x8, addend: 0x0, symName: __ZNKSt3__112basic_stringIcNS_11char_traitsIcEENS_9allocatorIcEEE13__get_pointerB8ne180100Ev, symObjAddr: 0x2978, symBinAddr: 0x1000040D0, symSize: 0x54 }
  - { offset: 0xAAC2, size: 0x8, addend: 0x0, symName: __ZNKSt3__112basic_stringIcNS_11char_traitsIcEENS_9allocatorIcEEE9__is_longB8ne180100Ev, symObjAddr: 0x29CC, symBinAddr: 0x100004124, symSize: 0x94 }
  - { offset: 0xAAE7, size: 0x8, addend: 0x0, symName: __ZNKSt3__112basic_stringIcNS_11char_traitsIcEENS_9allocatorIcEEE18__get_long_pointerB8ne180100Ev, symObjAddr: 0x2A60, symBinAddr: 0x1000041B8, symSize: 0x28 }
  - { offset: 0xAB0C, size: 0x8, addend: 0x0, symName: __ZNKSt3__112basic_stringIcNS_11char_traitsIcEENS_9allocatorIcEEE19__get_short_pointerB8ne180100Ev, symObjAddr: 0x2A88, symBinAddr: 0x1000041E0, symSize: 0x28 }
  - { offset: 0xAB31, size: 0x8, addend: 0x0, symName: __ZNKSt3__117__compressed_pairINS_12basic_stringIcNS_11char_traitsIcEENS_9allocatorIcEEE5__repES5_E5firstB8ne180100Ev, symObjAddr: 0x2ABC, symBinAddr: 0x100004214, symSize: 0x24 }
  - { offset: 0xAB56, size: 0x8, addend: 0x0, symName: __ZNKSt3__122__compressed_pair_elemINS_12basic_stringIcNS_11char_traitsIcEENS_9allocatorIcEEE5__repELi0ELb0EE5__getB8ne180100Ev, symObjAddr: 0x2AE0, symBinAddr: 0x100004238, symSize: 0x14 }
  - { offset: 0xAB7B, size: 0x8, addend: 0x0, symName: __ZNSt3__114pointer_traitsIPKcE10pointer_toB8ne180100ERS1_, symObjAddr: 0x2AF4, symBinAddr: 0x10000424C, symSize: 0x14 }
  - { offset: 0xAB9E, size: 0x8, addend: 0x0, symName: __ZNSt3__119ostreambuf_iteratorIcNS_11char_traitsIcEEEC2B8ne180100ERNS_13basic_ostreamIcS2_EE, symObjAddr: 0x2B08, symBinAddr: 0x100004260, symSize: 0x68 }
  - { offset: 0xABD4, size: 0x8, addend: 0x0, symName: __ZNKSt3__19basic_iosIcNS_11char_traitsIcEEE5rdbufB8ne180100Ev, symObjAddr: 0x2B70, symBinAddr: 0x1000042C8, symSize: 0x24 }
  - { offset: 0xABFB, size: 0x8, addend: 0x0, symName: __ZNKSt3__18ios_base5rdbufB8ne180100Ev, symObjAddr: 0x2B94, symBinAddr: 0x1000042EC, symSize: 0x18 }
  - { offset: 0xAC20, size: 0x8, addend: 0x0, symName: __ZNSt3__111char_traitsIcE11eq_int_typeB8ne180100Eii, symObjAddr: 0x2BAC, symBinAddr: 0x100004304, symSize: 0x28 }
  - { offset: 0xAC53, size: 0x8, addend: 0x0, symName: __ZNSt3__111char_traitsIcE3eofB8ne180100Ev, symObjAddr: 0x2BD4, symBinAddr: 0x10000432C, symSize: 0x8 }
  - { offset: 0xAC66, size: 0x8, addend: 0x0, symName: __ZNKSt3__19basic_iosIcNS_11char_traitsIcEEE5widenB8ne180100Ec, symObjAddr: 0x2BDC, symBinAddr: 0x100004334, symSize: 0x8C }
  - { offset: 0xACDE, size: 0x8, addend: 0x0, symName: __ZNKSt3__15ctypeIcE5widenB8ne180100Ec, symObjAddr: 0x2C94, symBinAddr: 0x1000043EC, symSize: 0x38 }
  - { offset: 0xAD11, size: 0x8, addend: 0x0, symName: __ZNSt3__18ios_base8setstateB8ne180100Ej, symObjAddr: 0x2CCC, symBinAddr: 0x100004424, symSize: 0x34 }
  - { offset: 0xAD47, size: 0x8, addend: 0x0, symName: __ZNKSt3__112basic_stringIcNS_11char_traitsIcEENS_9allocatorIcEEE4sizeB8ne180100Ev, symObjAddr: 0x2D24, symBinAddr: 0x10000447C, symSize: 0x54 }
  - { offset: 0xAD6C, size: 0x8, addend: 0x0, symName: __ZNKSt3__112basic_stringIcNS_11char_traitsIcEENS_9allocatorIcEEE15__get_long_sizeB8ne180100Ev, symObjAddr: 0x2D78, symBinAddr: 0x1000044D0, symSize: 0x28 }
  - { offset: 0xAD91, size: 0x8, addend: 0x0, symName: __ZNKSt3__112basic_stringIcNS_11char_traitsIcEENS_9allocatorIcEEE16__get_short_sizeB8ne180100Ev, symObjAddr: 0x2DA0, symBinAddr: 0x1000044F8, symSize: 0x34 }
  - { offset: 0xADB5, size: 0x8, addend: 0x0, symName: __ZNSt3__16vectorI11BillionaireNS_9allocatorIS1_EEEC2Em, symObjAddr: 0x2DD4, symBinAddr: 0x10000452C, symSize: 0xDC }
  - { offset: 0xAE0F, size: 0x8, addend: 0x0, symName: __ZNSt3__117__compressed_pairIP11BillionaireNS_9allocatorIS1_EEEC1B8ne180100IDnNS_18__default_init_tagEEEOT_OT0_, symObjAddr: 0x2EB0, symBinAddr: 0x100004608, symSize: 0x3C }
  - { offset: 0xAE66, size: 0x8, addend: 0x0, symName: __ZNSt3__16vectorI11BillionaireNS_9allocatorIS1_EEE16__destroy_vectorC1B8ne180100ERS4_, symObjAddr: 0x2F2C, symBinAddr: 0x100004684, symSize: 0x34 }
  - { offset: 0xAE9E, size: 0x8, addend: 0x0, symName: __ZNSt3__16vectorI11BillionaireNS_9allocatorIS1_EEE11__vallocateB8ne180100Em, symObjAddr: 0x2F60, symBinAddr: 0x1000046B8, symSize: 0xAC }
  - { offset: 0xAEE0, size: 0x8, addend: 0x0, symName: __ZNSt3__16vectorI11BillionaireNS_9allocatorIS1_EEE18__construct_at_endEm, symObjAddr: 0x300C, symBinAddr: 0x100004764, symSize: 0xD0 }
  - { offset: 0xAF51, size: 0x8, addend: 0x0, symName: __ZNSt3__128__exception_guard_exceptionsINS_6vectorI11BillionaireNS_9allocatorIS2_EEE16__destroy_vectorEE10__completeB8ne180100Ev, symObjAddr: 0x30DC, symBinAddr: 0x100004834, symSize: 0x1C }
  - { offset: 0xAF76, size: 0x8, addend: 0x0, symName: __ZNSt3__128__exception_guard_exceptionsINS_6vectorI11BillionaireNS_9allocatorIS2_EEE16__destroy_vectorEED1B8ne180100Ev, symObjAddr: 0x30F8, symBinAddr: 0x100004850, symSize: 0x2C }
  - { offset: 0xAF9F, size: 0x8, addend: 0x0, symName: __ZNSt3__117__compressed_pairIP11BillionaireNS_9allocatorIS1_EEEC2B8ne180100IDnNS_18__default_init_tagEEEOT_OT0_, symObjAddr: 0x3124, symBinAddr: 0x10000487C, symSize: 0x40 }
  - { offset: 0xAFF6, size: 0x8, addend: 0x0, symName: __ZNSt3__122__compressed_pair_elemIP11BillionaireLi0ELb0EEC2B8ne180100IDnvEEOT_, symObjAddr: 0x3164, symBinAddr: 0x1000048BC, symSize: 0x1C }
  - { offset: 0xB037, size: 0x8, addend: 0x0, symName: __ZNSt3__122__compressed_pair_elemINS_9allocatorI11BillionaireEELi1ELb1EEC2B8ne180100ENS_18__default_init_tagE, symObjAddr: 0x3180, symBinAddr: 0x1000048D8, symSize: 0x2C }
  - { offset: 0xB06B, size: 0x8, addend: 0x0, symName: __ZNSt3__19allocatorI11BillionaireEC2B8ne180100Ev, symObjAddr: 0x31AC, symBinAddr: 0x100004904, symSize: 0x2C }
  - { offset: 0xB094, size: 0x8, addend: 0x0, symName: __ZNSt3__116__non_trivial_ifILb1ENS_9allocatorI11BillionaireEEEC2B8ne180100Ev, symObjAddr: 0x31D8, symBinAddr: 0x100004930, symSize: 0x14 }
  - { offset: 0xB0BD, size: 0x8, addend: 0x0, symName: __ZNSt3__128__exception_guard_exceptionsINS_6vectorI11BillionaireNS_9allocatorIS2_EEE16__destroy_vectorEEC1B8ne180100ES6_, symObjAddr: 0x31EC, symBinAddr: 0x100004944, symSize: 0x34 }
  - { offset: 0xB0F4, size: 0x8, addend: 0x0, symName: __ZNSt3__128__exception_guard_exceptionsINS_6vectorI11BillionaireNS_9allocatorIS2_EEE16__destroy_vectorEEC2B8ne180100ES6_, symObjAddr: 0x3220, symBinAddr: 0x100004978, symSize: 0x24 }
  - { offset: 0xB12B, size: 0x8, addend: 0x0, symName: __ZNSt3__16vectorI11BillionaireNS_9allocatorIS1_EEE16__destroy_vectorC2B8ne180100ERS4_, symObjAddr: 0x3244, symBinAddr: 0x10000499C, symSize: 0x20 }
  - { offset: 0xB162, size: 0x8, addend: 0x0, symName: __ZNKSt3__16vectorI11BillionaireNS_9allocatorIS1_EEE8max_sizeEv, symObjAddr: 0x3264, symBinAddr: 0x1000049BC, symSize: 0x74 }
  - { offset: 0xB189, size: 0x8, addend: 0x0, symName: __ZNKSt3__16vectorI11BillionaireNS_9allocatorIS1_EEE20__throw_length_errorB8ne180100Ev, symObjAddr: 0x32D8, symBinAddr: 0x100004A30, symSize: 0x1C }
  - { offset: 0xB1AE, size: 0x8, addend: 0x0, symName: __ZNSt3__16vectorI11BillionaireNS_9allocatorIS1_EEE7__allocB8ne180100Ev, symObjAddr: 0x3334, symBinAddr: 0x100004A8C, symSize: 0x28 }
  - { offset: 0xB1D3, size: 0x8, addend: 0x0, symName: __ZNSt3__16vectorI11BillionaireNS_9allocatorIS1_EEE9__end_capB8ne180100Ev, symObjAddr: 0x335C, symBinAddr: 0x100004AB4, symSize: 0x28 }
  - { offset: 0xB1F8, size: 0x8, addend: 0x0, symName: __ZNKSt3__16vectorI11BillionaireNS_9allocatorIS1_EEE14__annotate_newB8ne180100Em, symObjAddr: 0x3384, symBinAddr: 0x100004ADC, symSize: 0x14 }
  - { offset: 0xB236, size: 0x8, addend: 0x0, symName: __ZNSt3__116allocator_traitsINS_9allocatorI11BillionaireEEE8max_sizeB8ne180100IS3_vEEmRKS3_, symObjAddr: 0x33C4, symBinAddr: 0x100004B1C, symSize: 0x24 }
  - { offset: 0xB264, size: 0x8, addend: 0x0, symName: __ZNKSt3__16vectorI11BillionaireNS_9allocatorIS1_EEE7__allocB8ne180100Ev, symObjAddr: 0x33E8, symBinAddr: 0x100004B40, symSize: 0x28 }
  - { offset: 0xB289, size: 0x8, addend: 0x0, symName: __ZNSt3__114numeric_limitsIlE3maxB8ne180100Ev, symObjAddr: 0x3410, symBinAddr: 0x100004B68, symSize: 0x14 }
  - { offset: 0xB2B1, size: 0x8, addend: 0x0, symName: __ZNKSt3__16__lessIvvEclB8ne180100ImmEEbRKT_RKT0_, symObjAddr: 0x3478, symBinAddr: 0x100004BD0, symSize: 0x34 }
  - { offset: 0xB304, size: 0x8, addend: 0x0, symName: __ZNKSt3__19allocatorI11BillionaireE8max_sizeB8ne180100Ev, symObjAddr: 0x34AC, symBinAddr: 0x100004C04, symSize: 0x14 }
  - { offset: 0xB329, size: 0x8, addend: 0x0, symName: __ZNKSt3__117__compressed_pairIP11BillionaireNS_9allocatorIS1_EEE6secondB8ne180100Ev, symObjAddr: 0x34C0, symBinAddr: 0x100004C18, symSize: 0x24 }
  - { offset: 0xB34E, size: 0x8, addend: 0x0, symName: __ZNKSt3__122__compressed_pair_elemINS_9allocatorI11BillionaireEELi1ELb1EE5__getB8ne180100Ev, symObjAddr: 0x34E4, symBinAddr: 0x100004C3C, symSize: 0x14 }
  - { offset: 0xB373, size: 0x8, addend: 0x0, symName: __ZNSt3__123__libcpp_numeric_limitsIlLb1EE3maxB8ne180100Ev, symObjAddr: 0x34F8, symBinAddr: 0x100004C50, symSize: 0x8 }
  - { offset: 0xB387, size: 0x8, addend: 0x0, symName: __ZNSt12length_errorC1B8ne180100EPKc, symObjAddr: 0x3564, symBinAddr: 0x100004CBC, symSize: 0x34 }
  - { offset: 0xB3BE, size: 0x8, addend: 0x0, symName: __ZNSt12length_errorC2B8ne180100EPKc, symObjAddr: 0x3598, symBinAddr: 0x100004CF0, symSize: 0x44 }
  - { offset: 0xB3F5, size: 0x8, addend: 0x0, symName: __ZNSt3__19allocatorI11BillionaireE8allocateB8ne180100Em, symObjAddr: 0x35DC, symBinAddr: 0x100004D34, symSize: 0x84 }
  - { offset: 0xB428, size: 0x8, addend: 0x0, symName: __ZNSt3__117__compressed_pairIP11BillionaireNS_9allocatorIS1_EEE6secondB8ne180100Ev, symObjAddr: 0x36E0, symBinAddr: 0x100004E38, symSize: 0x24 }
  - { offset: 0xB44D, size: 0x8, addend: 0x0, symName: __ZNSt3__122__compressed_pair_elemINS_9allocatorI11BillionaireEELi1ELb1EE5__getB8ne180100Ev, symObjAddr: 0x3704, symBinAddr: 0x100004E5C, symSize: 0x14 }
  - { offset: 0xB472, size: 0x8, addend: 0x0, symName: __ZNSt3__117__compressed_pairIP11BillionaireNS_9allocatorIS1_EEE5firstB8ne180100Ev, symObjAddr: 0x3718, symBinAddr: 0x100004E70, symSize: 0x24 }
  - { offset: 0xB497, size: 0x8, addend: 0x0, symName: __ZNSt3__122__compressed_pair_elemIP11BillionaireLi0ELb0EE5__getB8ne180100Ev, symObjAddr: 0x373C, symBinAddr: 0x100004E94, symSize: 0x14 }
  - { offset: 0xB4D5, size: 0x8, addend: 0x0, symName: __ZNSt3__16vectorI11BillionaireNS_9allocatorIS1_EEE21_ConstructTransactionC1B8ne180100ERS4_m, symObjAddr: 0x3750, symBinAddr: 0x100004EA8, symSize: 0x3C }
  - { offset: 0xB51C, size: 0x8, addend: 0x0, symName: __ZNSt3__116allocator_traitsINS_9allocatorI11BillionaireEEE9constructB8ne180100IS2_JEvEEvRS3_PT_DpOT0_, symObjAddr: 0x378C, symBinAddr: 0x100004EE4, symSize: 0x2C }
  - { offset: 0xB55E, size: 0x8, addend: 0x0, symName: __ZNSt3__16vectorI11BillionaireNS_9allocatorIS1_EEE21_ConstructTransactionD1B8ne180100Ev, symObjAddr: 0x37CC, symBinAddr: 0x100004F24, symSize: 0x2C }
  - { offset: 0xB587, size: 0x8, addend: 0x0, symName: __ZNSt3__16vectorI11BillionaireNS_9allocatorIS1_EEE21_ConstructTransactionC2B8ne180100ERS4_m, symObjAddr: 0x37F8, symBinAddr: 0x100004F50, symSize: 0x44 }
  - { offset: 0xB5CE, size: 0x8, addend: 0x0, symName: __ZNSt3__19allocatorI11BillionaireE9constructB8ne180100IS1_JEEEvPT_DpOT0_, symObjAddr: 0x383C, symBinAddr: 0x100004F94, symSize: 0x28 }
  - { offset: 0xB60F, size: 0x8, addend: 0x0, symName: __ZN11BillionaireC1Ev, symObjAddr: 0x3864, symBinAddr: 0x100004FBC, symSize: 0x2C }
  - { offset: 0xB638, size: 0x8, addend: 0x0, symName: __ZN11BillionaireC2Ev, symObjAddr: 0x3890, symBinAddr: 0x100004FE8, symSize: 0x1A0 }
  - { offset: 0xB661, size: 0x8, addend: 0x0, symName: __ZNSt3__112basic_stringIcNS_11char_traitsIcEENS_9allocatorIcEEEaSB8ne180100EPKc, symObjAddr: 0x3A30, symBinAddr: 0x100005188, symSize: 0x2C }
  - { offset: 0xB695, size: 0x8, addend: 0x0, symName: __ZNSt3__16vectorI11BillionaireNS_9allocatorIS1_EEE21_ConstructTransactionD2B8ne180100Ev, symObjAddr: 0x3A5C, symBinAddr: 0x1000051B4, symSize: 0x20 }
  - { offset: 0xB6BE, size: 0x8, addend: 0x0, symName: __ZNSt3__128__exception_guard_exceptionsINS_6vectorI11BillionaireNS_9allocatorIS2_EEE16__destroy_vectorEED2B8ne180100Ev, symObjAddr: 0x3A7C, symBinAddr: 0x1000051D4, symSize: 0x48 }
  - { offset: 0xB6E7, size: 0x8, addend: 0x0, symName: __ZNSt3__16vectorI11BillionaireNS_9allocatorIS1_EEE16__destroy_vectorclB8ne180100Ev, symObjAddr: 0x3AC4, symBinAddr: 0x10000521C, symSize: 0x90 }
  - { offset: 0xB70C, size: 0x8, addend: 0x0, symName: __ZNSt3__16vectorI11BillionaireNS_9allocatorIS1_EEE7__clearB8ne180100Ev, symObjAddr: 0x3B54, symBinAddr: 0x1000052AC, symSize: 0x28 }
  - { offset: 0xB731, size: 0x8, addend: 0x0, symName: __ZNKSt3__16vectorI11BillionaireNS_9allocatorIS1_EEE17__annotate_deleteB8ne180100Ev, symObjAddr: 0x3B7C, symBinAddr: 0x1000052D4, symSize: 0x10 }
  - { offset: 0xB756, size: 0x8, addend: 0x0, symName: __ZNSt3__116allocator_traitsINS_9allocatorI11BillionaireEEE10deallocateB8ne180100ERS3_PS2_m, symObjAddr: 0x3B8C, symBinAddr: 0x1000052E4, symSize: 0x34 }
  - { offset: 0xB798, size: 0x8, addend: 0x0, symName: __ZNKSt3__16vectorI11BillionaireNS_9allocatorIS1_EEE8capacityB8ne180100Ev, symObjAddr: 0x3BC0, symBinAddr: 0x100005318, symSize: 0x40 }
  - { offset: 0xB7BD, size: 0x8, addend: 0x0, symName: __ZNSt3__16vectorI11BillionaireNS_9allocatorIS1_EEE22__base_destruct_at_endB8ne180100EPS1_, symObjAddr: 0x3C00, symBinAddr: 0x100005358, symSize: 0xA0 }
  - { offset: 0xB800, size: 0x8, addend: 0x0, symName: __ZNSt3__116allocator_traitsINS_9allocatorI11BillionaireEEE7destroyB8ne180100IS2_vEEvRS3_PT_, symObjAddr: 0x3CA0, symBinAddr: 0x1000053F8, symSize: 0x2C }
  - { offset: 0xB83D, size: 0x8, addend: 0x0, symName: __ZNSt3__19allocatorI11BillionaireE7destroyB8ne180100EPS1_, symObjAddr: 0x3CCC, symBinAddr: 0x100005424, symSize: 0x28 }
  - { offset: 0xB870, size: 0x8, addend: 0x0, symName: __ZNSt3__19allocatorI11BillionaireE10deallocateB8ne180100EPS1_m, symObjAddr: 0x3CF4, symBinAddr: 0x10000544C, symSize: 0x70 }
  - { offset: 0xB8B1, size: 0x8, addend: 0x0, symName: __ZNKSt3__16vectorI11BillionaireNS_9allocatorIS1_EEE9__end_capB8ne180100Ev, symObjAddr: 0x3DE0, symBinAddr: 0x100005538, symSize: 0x28 }
  - { offset: 0xB8D6, size: 0x8, addend: 0x0, symName: __ZNKSt3__117__compressed_pairIP11BillionaireNS_9allocatorIS1_EEE5firstB8ne180100Ev, symObjAddr: 0x3E08, symBinAddr: 0x100005560, symSize: 0x24 }
  - { offset: 0xB8FB, size: 0x8, addend: 0x0, symName: __ZNKSt3__122__compressed_pair_elemIP11BillionaireLi0ELb0EE5__getB8ne180100Ev, symObjAddr: 0x3E2C, symBinAddr: 0x100005584, symSize: 0x14 }
  - { offset: 0xB920, size: 0x8, addend: 0x0, symName: __ZNSt3__16vectorI11BillionaireNS_9allocatorIS1_EEED2B8ne180100Ev, symObjAddr: 0x3E40, symBinAddr: 0x100005598, symSize: 0x3C }
  - { offset: 0xB949, size: 0x8, addend: 0x0, symName: __ZNSt3__16vectorI11BillionaireNS_9allocatorIS1_EEEC2B8ne180100Ev, symObjAddr: 0x3E7C, symBinAddr: 0x1000055D4, symSize: 0x44 }
  - { offset: 0xB972, size: 0x8, addend: 0x0, symName: __ZNSt3__19basic_iosIcNS_11char_traitsIcEEEC2B8ne180100Ev, symObjAddr: 0x3EC0, symBinAddr: 0x100005618, symSize: 0x3C }
  - { offset: 0xB99B, size: 0x8, addend: 0x0, symName: __ZNSt3__113basic_istreamIcNS_11char_traitsIcEEEC2B8ne180100EPNS_15basic_streambufIcS2_EE, symObjAddr: 0x3EFC, symBinAddr: 0x100005654, symSize: 0x64 }
  - { offset: 0xB9DD, size: 0x8, addend: 0x0, symName: __ZNSt3__113basic_filebufIcNS_11char_traitsIcEEE4openERKNS_12basic_stringIcS2_NS_9allocatorIcEEEEj, symObjAddr: 0x3F60, symBinAddr: 0x1000056B8, symSize: 0x44 }
  - { offset: 0xBA22, size: 0x8, addend: 0x0, symName: __ZNSt3__18ios_baseC2B8ne180100Ev, symObjAddr: 0x3FA4, symBinAddr: 0x1000056FC, symSize: 0x24 }
  - { offset: 0xBA4A, size: 0x8, addend: 0x0, symName: __ZNSt3__19basic_iosIcNS_11char_traitsIcEEE4initB8ne180100EPNS_15basic_streambufIcS2_EE, symObjAddr: 0x3FC8, symBinAddr: 0x100005720, symSize: 0x44 }
  - { offset: 0xBA80, size: 0x8, addend: 0x0, symName: __ZNKSt3__112basic_stringIcNS_11char_traitsIcEENS_9allocatorIcEEE5c_strB8ne180100Ev, symObjAddr: 0x400C, symBinAddr: 0x100005764, symSize: 0x24 }
  - { offset: 0xBAA5, size: 0x8, addend: 0x0, symName: __ZNKSt3__113basic_filebufIcNS_11char_traitsIcEEE7is_openEv, symObjAddr: 0x4030, symBinAddr: 0x100005788, symSize: 0x24 }
  - { offset: 0xBACC, size: 0x8, addend: 0x0, symName: __ZNKSt3__19basic_iosIcNS_11char_traitsIcEEE4failB8ne180100Ev, symObjAddr: 0x4054, symBinAddr: 0x1000057AC, symSize: 0x28 }
  - { offset: 0xBAF1, size: 0x8, addend: 0x0, symName: __ZNKSt3__18ios_base4failB8ne180100Ev, symObjAddr: 0x407C, symBinAddr: 0x1000057D4, symSize: 0x28 }
  - { offset: 0xBB18, size: 0x8, addend: 0x0, symName: __ZNSt3__114basic_iostreamIcNS_11char_traitsIcEEEC2B8ne180100EPNS_15basic_streambufIcS2_EE, symObjAddr: 0x40A4, symBinAddr: 0x1000057FC, symSize: 0xB4 }
  - { offset: 0xBB5C, size: 0x8, addend: 0x0, symName: __ZNSt3__115basic_stringbufIcNS_11char_traitsIcEENS_9allocatorIcEEEC1B8ne180100ERKNS_12basic_stringIcS2_S4_EEj, symObjAddr: 0x4158, symBinAddr: 0x1000058B0, symSize: 0x3C }
  - { offset: 0xBBA3, size: 0x8, addend: 0x0, symName: __ZNSt3__113basic_ostreamIcNS_11char_traitsIcEEEC2B8ne180100Ev, symObjAddr: 0x4194, symBinAddr: 0x1000058EC, symSize: 0x34 }
  - { offset: 0xBBD8, size: 0x8, addend: 0x0, symName: __ZNSt3__115basic_stringbufIcNS_11char_traitsIcEENS_9allocatorIcEEEC2B8ne180100ERKNS_12basic_stringIcS2_S4_EEj, symObjAddr: 0x41C8, symBinAddr: 0x100005920, symSize: 0xCC }
  - { offset: 0xBC1F, size: 0x8, addend: 0x0, symName: __ZNKSt3__112basic_stringIcNS_11char_traitsIcEENS_9allocatorIcEEE13get_allocatorB8ne180100Ev, symObjAddr: 0x4294, symBinAddr: 0x1000059EC, symSize: 0x24 }
  - { offset: 0xBC44, size: 0x8, addend: 0x0, symName: __ZNSt3__112basic_stringIcNS_11char_traitsIcEENS_9allocatorIcEEEC1B8ne180100ERKS4_, symObjAddr: 0x42B8, symBinAddr: 0x100005A10, symSize: 0x34 }
  - { offset: 0xBC7C, size: 0x8, addend: 0x0, symName: __ZNKSt3__112basic_stringIcNS_11char_traitsIcEENS_9allocatorIcEEE7__allocB8ne180100Ev, symObjAddr: 0x42EC, symBinAddr: 0x100005A44, symSize: 0x24 }
  - { offset: 0xBCA1, size: 0x8, addend: 0x0, symName: __ZNKSt3__117__compressed_pairINS_12basic_stringIcNS_11char_traitsIcEENS_9allocatorIcEEE5__repES5_E6secondB8ne180100Ev, symObjAddr: 0x4310, symBinAddr: 0x100005A68, symSize: 0x24 }
  - { offset: 0xBCC6, size: 0x8, addend: 0x0, symName: __ZNKSt3__122__compressed_pair_elemINS_9allocatorIcEELi1ELb1EE5__getB8ne180100Ev, symObjAddr: 0x4334, symBinAddr: 0x100005A8C, symSize: 0x14 }
  - { offset: 0xBCEB, size: 0x8, addend: 0x0, symName: __ZNSt3__112basic_stringIcNS_11char_traitsIcEENS_9allocatorIcEEEC2B8ne180100ERKS4_, symObjAddr: 0x4348, symBinAddr: 0x100005AA0, symSize: 0x44 }
  - { offset: 0xBD23, size: 0x8, addend: 0x0, symName: __ZNSt3__117__compressed_pairINS_12basic_stringIcNS_11char_traitsIcEENS_9allocatorIcEEE5__repES5_EC1B8ne180100INS_16__value_init_tagERKS5_EEOT_OT0_, symObjAddr: 0x438C, symBinAddr: 0x100005AE4, symSize: 0x3C }
  - { offset: 0xBD7A, size: 0x8, addend: 0x0, symName: __ZNSt3__117__compressed_pairINS_12basic_stringIcNS_11char_traitsIcEENS_9allocatorIcEEE5__repES5_EC2B8ne180100INS_16__value_init_tagERKS5_EEOT_OT0_, symObjAddr: 0x43C8, symBinAddr: 0x100005B20, symSize: 0x40 }
  - { offset: 0xBDD1, size: 0x8, addend: 0x0, symName: __ZNSt3__122__compressed_pair_elemINS_9allocatorIcEELi1ELb1EEC2B8ne180100IRKS2_vEEOT_, symObjAddr: 0x4408, symBinAddr: 0x100005B60, symSize: 0x18 }
  - { offset: 0xBE30, size: 0x8, addend: 0x0, symName: __ZNKSt3__113basic_istreamIcNS_11char_traitsIcEEE6sentrycvbB8ne180100Ev, symObjAddr: 0x4420, symBinAddr: 0x100005B78, symSize: 0x1C }
  - { offset: 0xBE54, size: 0x8, addend: 0x0, symName: __ZNSt3__112basic_stringIcNS_11char_traitsIcEENS_9allocatorIcEEE5clearB8ne180100Ev, symObjAddr: 0x443C, symBinAddr: 0x100005B94, symSize: 0x94 }
  - { offset: 0xBE8A, size: 0x8, addend: 0x0, symName: __ZNSt3__115basic_streambufIcNS_11char_traitsIcEEE6sbumpcB8ne180100Ev, symObjAddr: 0x44D0, symBinAddr: 0x100005C28, symSize: 0x78 }
  - { offset: 0xBEAF, size: 0x8, addend: 0x0, symName: __ZNSt3__111char_traitsIcE12to_char_typeB8ne180100Ei, symObjAddr: 0x4548, symBinAddr: 0x100005CA0, symSize: 0x18 }
  - { offset: 0xBED3, size: 0x8, addend: 0x0, symName: __ZNSt3__111char_traitsIcE2eqEcc, symObjAddr: 0x4560, symBinAddr: 0x100005CB8, symSize: 0x28 }
  - { offset: 0xBF04, size: 0x8, addend: 0x0, symName: __ZNKSt3__112basic_stringIcNS_11char_traitsIcEENS_9allocatorIcEEE8max_sizeB8ne180100Ev, symObjAddr: 0x4588, symBinAddr: 0x100005CE0, symSize: 0xAC }
  - { offset: 0xBF55, size: 0x8, addend: 0x0, symName: __ZNSt3__18ios_base18__setstate_nothrowB8ne180100Ej, symObjAddr: 0x4634, symBinAddr: 0x100005D8C, symSize: 0x64 }
  - { offset: 0xBF89, size: 0x8, addend: 0x0, symName: __ZNKSt3__19basic_iosIcNS_11char_traitsIcEEE10exceptionsB8ne180100Ev, symObjAddr: 0x4698, symBinAddr: 0x100005DF0, symSize: 0x24 }
  - { offset: 0xBFAE, size: 0x8, addend: 0x0, symName: __ZNSt3__111char_traitsIcE6assignB8ne180100ERcRKc, symObjAddr: 0x46BC, symBinAddr: 0x100005E14, symSize: 0x24 }
  - { offset: 0xBFDF, size: 0x8, addend: 0x0, symName: __ZNSt3__112basic_stringIcNS_11char_traitsIcEENS_9allocatorIcEEE18__get_long_pointerB8ne180100Ev, symObjAddr: 0x46E0, symBinAddr: 0x100005E38, symSize: 0x28 }
  - { offset: 0xC004, size: 0x8, addend: 0x0, symName: __ZNSt3__112basic_stringIcNS_11char_traitsIcEENS_9allocatorIcEEE15__set_long_sizeB8ne180100Em, symObjAddr: 0x4708, symBinAddr: 0x100005E60, symSize: 0x38 }
  - { offset: 0xC038, size: 0x8, addend: 0x0, symName: __ZNSt3__112basic_stringIcNS_11char_traitsIcEENS_9allocatorIcEEE19__get_short_pointerB8ne180100Ev, symObjAddr: 0x4740, symBinAddr: 0x100005E98, symSize: 0x28 }
  - { offset: 0xC05D, size: 0x8, addend: 0x0, symName: __ZNSt3__112basic_stringIcNS_11char_traitsIcEENS_9allocatorIcEEE16__set_short_sizeB8ne180100Em, symObjAddr: 0x4768, symBinAddr: 0x100005EC0, symSize: 0x78 }
  - { offset: 0xC091, size: 0x8, addend: 0x0, symName: __ZNKSt3__112basic_stringIcNS_11char_traitsIcEENS_9allocatorIcEEE17__annotate_shrinkB8ne180100Em, symObjAddr: 0x47E0, symBinAddr: 0x100005F38, symSize: 0x14 }
  - { offset: 0xC0C5, size: 0x8, addend: 0x0, symName: __ZNSt3__117__compressed_pairINS_12basic_stringIcNS_11char_traitsIcEENS_9allocatorIcEEE5__repES5_E5firstB8ne180100Ev, symObjAddr: 0x47F4, symBinAddr: 0x100005F4C, symSize: 0x24 }
  - { offset: 0xC0EA, size: 0x8, addend: 0x0, symName: __ZNSt3__122__compressed_pair_elemINS_12basic_stringIcNS_11char_traitsIcEENS_9allocatorIcEEE5__repELi0ELb0EE5__getB8ne180100Ev, symObjAddr: 0x4818, symBinAddr: 0x100005F70, symSize: 0x14 }
  - { offset: 0xC10F, size: 0x8, addend: 0x0, symName: __ZNSt3__114pointer_traitsIPcE10pointer_toB8ne180100ERc, symObjAddr: 0x482C, symBinAddr: 0x100005F84, symSize: 0x14 }
  - { offset: 0xC132, size: 0x8, addend: 0x0, symName: __ZNSt3__111char_traitsIcE11to_int_typeB8ne180100Ec, symObjAddr: 0x4840, symBinAddr: 0x100005F98, symSize: 0x14 }
  - { offset: 0xC160, size: 0x8, addend: 0x0, symName: __ZNSt3__116allocator_traitsINS_9allocatorIcEEE8max_sizeB8ne180100IS2_vEEmRKS2_, symObjAddr: 0x4854, symBinAddr: 0x100005FAC, symSize: 0x24 }
  - { offset: 0xC18E, size: 0x8, addend: 0x0, symName: __ZNSt3__114numeric_limitsImE3maxB8ne180100Ev, symObjAddr: 0x4878, symBinAddr: 0x100005FD0, symSize: 0x14 }
  - { offset: 0xC1A2, size: 0x8, addend: 0x0, symName: __ZNKSt3__19allocatorIcE8max_sizeB8ne180100Ev, symObjAddr: 0x488C, symBinAddr: 0x100005FE4, symSize: 0x14 }
  - { offset: 0xC1C7, size: 0x8, addend: 0x0, symName: __ZNSt3__123__libcpp_numeric_limitsImLb1EE3maxB8ne180100Ev, symObjAddr: 0x48A0, symBinAddr: 0x100005FF8, symSize: 0x8 }
  - { offset: 0xC1DB, size: 0x8, addend: 0x0, symName: __ZNKSt3__18ios_base10exceptionsB8ne180100Ev, symObjAddr: 0x48A8, symBinAddr: 0x100006000, symSize: 0x18 }
  - { offset: 0xC202, size: 0x8, addend: 0x0, symName: __ZNSt3__16vectorI11BillionaireNS_9allocatorIS1_EEE22__construct_one_at_endB8ne180100IJRKS1_EEEvDpOT_, symObjAddr: 0x48C0, symBinAddr: 0x100006018, symSize: 0x98 }
  - { offset: 0xC24F, size: 0x8, addend: 0x0, symName: __ZNSt3__16vectorI11BillionaireNS_9allocatorIS1_EEE21__push_back_slow_pathIRKS1_EEPS1_OT_, symObjAddr: 0x4958, symBinAddr: 0x1000060B0, symSize: 0xF0 }
  - { offset: 0xC2AC, size: 0x8, addend: 0x0, symName: __ZNSt3__116allocator_traitsINS_9allocatorI11BillionaireEEE9constructB8ne180100IS2_JRKS2_EvEEvRS3_PT_DpOT0_, symObjAddr: 0x4A48, symBinAddr: 0x1000061A0, symSize: 0x34 }
  - { offset: 0xC303, size: 0x8, addend: 0x0, symName: __ZNSt3__19allocatorI11BillionaireE9constructB8ne180100IS1_JRKS1_EEEvPT_DpOT0_, symObjAddr: 0x4A7C, symBinAddr: 0x1000061D4, symSize: 0x30 }
  - { offset: 0xC358, size: 0x8, addend: 0x0, symName: __ZN11BillionaireC1ERKS_, symObjAddr: 0x4AAC, symBinAddr: 0x100006204, symSize: 0x34 }
  - { offset: 0xC38C, size: 0x8, addend: 0x0, symName: __ZN11BillionaireC2ERKS_, symObjAddr: 0x4AE0, symBinAddr: 0x100006238, symSize: 0x138 }
  - { offset: 0xC3BF, size: 0x8, addend: 0x0, symName: __ZNKSt3__16vectorI11BillionaireNS_9allocatorIS1_EEE11__recommendB8ne180100Em, symObjAddr: 0x4C18, symBinAddr: 0x100006370, symSize: 0xB4 }
  - { offset: 0xC412, size: 0x8, addend: 0x0, symName: __ZNSt3__114__split_bufferI11BillionaireRNS_9allocatorIS1_EEEC1EmmS4_, symObjAddr: 0x4CCC, symBinAddr: 0x100006424, symSize: 0x44 }
  - { offset: 0xC466, size: 0x8, addend: 0x0, symName: __ZNSt3__114__split_bufferI11BillionaireRNS_9allocatorIS1_EEED1Ev, symObjAddr: 0x4E20, symBinAddr: 0x100006578, symSize: 0x2C }
  - { offset: 0xC490, size: 0x8, addend: 0x0, symName: __ZNSt3__114__split_bufferI11BillionaireRNS_9allocatorIS1_EEEC2EmmS4_, symObjAddr: 0x4ECC, symBinAddr: 0x100006624, symSize: 0xD4 }
  - { offset: 0xC502, size: 0x8, addend: 0x0, symName: __ZNSt3__117__compressed_pairIP11BillionaireRNS_9allocatorIS1_EEEC1B8ne180100IDnS5_EEOT_OT0_, symObjAddr: 0x4FA0, symBinAddr: 0x1000066F8, symSize: 0x3C }
  - { offset: 0xC559, size: 0x8, addend: 0x0, symName: __ZNSt3__114__split_bufferI11BillionaireRNS_9allocatorIS1_EEE7__allocB8ne180100Ev, symObjAddr: 0x4FDC, symBinAddr: 0x100006734, symSize: 0x28 }
  - { offset: 0xC57E, size: 0x8, addend: 0x0, symName: __ZNSt3__114__split_bufferI11BillionaireRNS_9allocatorIS1_EEE9__end_capB8ne180100Ev, symObjAddr: 0x5004, symBinAddr: 0x10000675C, symSize: 0x28 }
  - { offset: 0xC5A3, size: 0x8, addend: 0x0, symName: __ZNSt3__117__compressed_pairIP11BillionaireRNS_9allocatorIS1_EEEC2B8ne180100IDnS5_EEOT_OT0_, symObjAddr: 0x502C, symBinAddr: 0x100006784, symSize: 0x48 }
  - { offset: 0xC5FA, size: 0x8, addend: 0x0, symName: __ZNSt3__122__compressed_pair_elemIRNS_9allocatorI11BillionaireEELi1ELb0EEC2B8ne180100IS4_vEEOT_, symObjAddr: 0x5074, symBinAddr: 0x1000067CC, symSize: 0x20 }
  - { offset: 0xC63B, size: 0x8, addend: 0x0, symName: __ZNSt3__117__compressed_pairIP11BillionaireRNS_9allocatorIS1_EEE6secondB8ne180100Ev, symObjAddr: 0x5094, symBinAddr: 0x1000067EC, symSize: 0x28 }
  - { offset: 0xC660, size: 0x8, addend: 0x0, symName: __ZNSt3__122__compressed_pair_elemIRNS_9allocatorI11BillionaireEELi1ELb0EE5__getB8ne180100Ev, symObjAddr: 0x50BC, symBinAddr: 0x100006814, symSize: 0x18 }
  - { offset: 0xC685, size: 0x8, addend: 0x0, symName: __ZNSt3__117__compressed_pairIP11BillionaireRNS_9allocatorIS1_EEE5firstB8ne180100Ev, symObjAddr: 0x50D4, symBinAddr: 0x10000682C, symSize: 0x24 }
  - { offset: 0xC6AA, size: 0x8, addend: 0x0, symName: __ZNSt3__116reverse_iteratorIP11BillionaireEC1B8ne180100ES2_, symObjAddr: 0x522C, symBinAddr: 0x100006984, symSize: 0x34 }
  - { offset: 0xC6E1, size: 0x8, addend: 0x0, symName: __ZNKSt3__116reverse_iteratorIP11BillionaireE4baseB8ne180100Ev, symObjAddr: 0x5260, symBinAddr: 0x1000069B8, symSize: 0x18 }
  - { offset: 0xC706, size: 0x8, addend: 0x0, symName: __ZNSt3__129_AllocatorDestroyRangeReverseINS_9allocatorI11BillionaireEENS_16reverse_iteratorIPS2_EEEC1B8ne180100ERS3_RS6_S9_, symObjAddr: 0x5300, symBinAddr: 0x100006A58, symSize: 0x44 }
  - { offset: 0xC75C, size: 0x8, addend: 0x0, symName: __ZNKSt3__116reverse_iteratorIP11BillionaireEdeB8ne180100Ev, symObjAddr: 0x53B0, symBinAddr: 0x100006B08, symSize: 0x28 }
  - { offset: 0xC78F, size: 0x8, addend: 0x0, symName: __ZNSt3__116reverse_iteratorIP11BillionaireEppB8ne180100Ev, symObjAddr: 0x53D8, symBinAddr: 0x100006B30, symSize: 0x20 }
  - { offset: 0xC7B4, size: 0x8, addend: 0x0, symName: __ZNSt3__128__exception_guard_exceptionsINS_29_AllocatorDestroyRangeReverseINS_9allocatorI11BillionaireEENS_16reverse_iteratorIPS3_EEEEE10__completeB8ne180100Ev, symObjAddr: 0x53F8, symBinAddr: 0x100006B50, symSize: 0x1C }
  - { offset: 0xC7D9, size: 0x8, addend: 0x0, symName: __ZNSt3__128__exception_guard_exceptionsINS_29_AllocatorDestroyRangeReverseINS_9allocatorI11BillionaireEENS_16reverse_iteratorIPS3_EEEEED1B8ne180100Ev, symObjAddr: 0x5414, symBinAddr: 0x100006B6C, symSize: 0x2C }
  - { offset: 0xC802, size: 0x8, addend: 0x0, symName: __ZNSt3__128__exception_guard_exceptionsINS_29_AllocatorDestroyRangeReverseINS_9allocatorI11BillionaireEENS_16reverse_iteratorIPS3_EEEEEC1B8ne180100ES8_, symObjAddr: 0x5440, symBinAddr: 0x100006B98, symSize: 0x34 }
  - { offset: 0xC83A, size: 0x8, addend: 0x0, symName: __ZNSt3__128__exception_guard_exceptionsINS_29_AllocatorDestroyRangeReverseINS_9allocatorI11BillionaireEENS_16reverse_iteratorIPS3_EEEEEC2B8ne180100ES8_, symObjAddr: 0x5474, symBinAddr: 0x100006BCC, symSize: 0x30 }
  - { offset: 0xC872, size: 0x8, addend: 0x0, symName: __ZNSt3__129_AllocatorDestroyRangeReverseINS_9allocatorI11BillionaireEENS_16reverse_iteratorIPS2_EEEC2B8ne180100ERS3_RS6_S9_, symObjAddr: 0x54A4, symBinAddr: 0x100006BFC, symSize: 0x38 }
  - { offset: 0xC8CD, size: 0x8, addend: 0x0, symName: __ZNSt3__119__to_address_helperINS_16reverse_iteratorIP11BillionaireEEvE6__callB8ne180100ERKS4_, symObjAddr: 0x54DC, symBinAddr: 0x100006C34, symSize: 0x4C }
  - { offset: 0xC8F0, size: 0x8, addend: 0x0, symName: __ZNKSt3__116reverse_iteratorIP11BillionaireEptB8ne180100Ev, symObjAddr: 0x5528, symBinAddr: 0x100006C80, symSize: 0x24 }
  - { offset: 0xC915, size: 0x8, addend: 0x0, symName: __ZNSt3__128__exception_guard_exceptionsINS_29_AllocatorDestroyRangeReverseINS_9allocatorI11BillionaireEENS_16reverse_iteratorIPS3_EEEEED2B8ne180100Ev, symObjAddr: 0x554C, symBinAddr: 0x100006CA4, symSize: 0x48 }
  - { offset: 0xC93E, size: 0x8, addend: 0x0, symName: __ZNKSt3__129_AllocatorDestroyRangeReverseINS_9allocatorI11BillionaireEENS_16reverse_iteratorIPS2_EEEclB8ne180100Ev, symObjAddr: 0x5594, symBinAddr: 0x100006CEC, symSize: 0xB4 }
  - { offset: 0xC964, size: 0x8, addend: 0x0, symName: __ZNSt3__116reverse_iteratorINS0_IP11BillionaireEEEC1B8ne180100ES3_, symObjAddr: 0x56B8, symBinAddr: 0x100006E10, symSize: 0x3C }
  - { offset: 0xC99B, size: 0x8, addend: 0x0, symName: __ZNSt3__116reverse_iteratorINS0_IP11BillionaireEEEppB8ne180100Ev, symObjAddr: 0x5778, symBinAddr: 0x100006ED0, symSize: 0x30 }
  - { offset: 0xC9C0, size: 0x8, addend: 0x0, symName: __ZNKSt3__116reverse_iteratorINS0_IP11BillionaireEEE4baseB8ne180100Ev, symObjAddr: 0x57A8, symBinAddr: 0x100006F00, symSize: 0x24 }
  - { offset: 0xC9EA, size: 0x8, addend: 0x0, symName: __ZNSt3__119__to_address_helperINS_16reverse_iteratorINS1_IP11BillionaireEEEEvE6__callB8ne180100ERKS5_, symObjAddr: 0x57CC, symBinAddr: 0x100006F24, symSize: 0x4C }
  - { offset: 0xCA0D, size: 0x8, addend: 0x0, symName: __ZNKSt3__116reverse_iteratorINS0_IP11BillionaireEEEptB8ne180100Ev, symObjAddr: 0x5818, symBinAddr: 0x100006F70, symSize: 0x24 }
  - { offset: 0xCA32, size: 0x8, addend: 0x0, symName: __ZNKSt3__116reverse_iteratorINS0_IP11BillionaireEEEdeB8ne180100Ev, symObjAddr: 0x583C, symBinAddr: 0x100006F94, symSize: 0x34 }
  - { offset: 0xCA65, size: 0x8, addend: 0x0, symName: __ZNSt3__116reverse_iteratorIP11BillionaireEmmB8ne180100Ev, symObjAddr: 0x5870, symBinAddr: 0x100006FC8, symSize: 0x20 }
  - { offset: 0xCA8A, size: 0x8, addend: 0x0, symName: __ZNSt3__116reverse_iteratorINS0_IP11BillionaireEEEC2B8ne180100ES3_, symObjAddr: 0x5890, symBinAddr: 0x100006FE8, symSize: 0x2C }
  - { offset: 0xCAC1, size: 0x8, addend: 0x0, symName: __ZNSt3__116reverse_iteratorIP11BillionaireEC2B8ne180100ES2_, symObjAddr: 0x58BC, symBinAddr: 0x100007014, symSize: 0x28 }
  - { offset: 0xCAF7, size: 0x8, addend: 0x0, symName: __ZNSt3__114__split_bufferI11BillionaireRNS_9allocatorIS1_EEED2Ev, symObjAddr: 0x58E4, symBinAddr: 0x10000703C, symSize: 0x80 }
  - { offset: 0xCB22, size: 0x8, addend: 0x0, symName: __ZNSt3__114__split_bufferI11BillionaireRNS_9allocatorIS1_EEE5clearB8ne180100Ev, symObjAddr: 0x5964, symBinAddr: 0x1000070BC, symSize: 0x28 }
  - { offset: 0xCB47, size: 0x8, addend: 0x0, symName: __ZNKSt3__114__split_bufferI11BillionaireRNS_9allocatorIS1_EEE8capacityB8ne180100Ev, symObjAddr: 0x598C, symBinAddr: 0x1000070E4, symSize: 0x40 }
  - { offset: 0xCB6C, size: 0x8, addend: 0x0, symName: __ZNSt3__114__split_bufferI11BillionaireRNS_9allocatorIS1_EEE17__destruct_at_endB8ne180100EPS1_, symObjAddr: 0x59CC, symBinAddr: 0x100007124, symSize: 0x2C }
  - { offset: 0xCB9E, size: 0x8, addend: 0x0, symName: __ZNSt3__114__split_bufferI11BillionaireRNS_9allocatorIS1_EEE17__destruct_at_endB8ne180100EPS1_NS_17integral_constantIbLb0EEE, symObjAddr: 0x59F8, symBinAddr: 0x100007150, symSize: 0x94 }
  - { offset: 0xCBDE, size: 0x8, addend: 0x0, symName: __ZNKSt3__114__split_bufferI11BillionaireRNS_9allocatorIS1_EEE9__end_capB8ne180100Ev, symObjAddr: 0x5A8C, symBinAddr: 0x1000071E4, symSize: 0x28 }
  - { offset: 0xCC03, size: 0x8, addend: 0x0, symName: __ZNKSt3__117__compressed_pairIP11BillionaireRNS_9allocatorIS1_EEE5firstB8ne180100Ev, symObjAddr: 0x5AB4, symBinAddr: 0x10000720C, symSize: 0x24 }
  - { offset: 0xCC28, size: 0x8, addend: 0x0, symName: __ZNSt3__112basic_stringIcNS_11char_traitsIcEENS_9allocatorIcEEEC2B8ne180100ILi0EEEPKc, symObjAddr: 0x5AD8, symBinAddr: 0x100007230, symSize: 0x58 }
...
